; Function Attrs: mustprogress nounwind uwtable
define dso_local noundef ptr @_ZN4node10NewIsolateESt10shared_ptrINS_20ArrayBufferAllocatorEEP9uv_loop_sPNS_20MultiIsolatePlatformEPKNS_20EmbedderSnapshotDataERKNS_15IsolateSettingsE(ptr nocapture noundef readonly %allocator, ptr noundef %event_loop, ptr noundef %platform, ptr noundef %snapshot_data, ptr nocapture noundef nonnull readonly align 8 dereferenceable(64) %settings) local_unnamed_addr #3 {
entry:
  %params = alloca %"struct.v8::Isolate::CreateParams", align 8
  call void @_ZN2v87Isolate12CreateParamsC1Ev(ptr noundef nonnull align 8 dereferenceable(152) %params) #12
  %0 = load ptr, ptr %allocator, align 8
  %cmp.i.not = icmp eq ptr %0, null
  br i1 %cmp.i.not, label %if.end, label %if.then

if.then:                                          ; preds = %entry
  %array_buffer_allocator_shared = getelementptr inbounds i8, ptr %params, i64 96
  store ptr %0, ptr %array_buffer_allocator_shared, align 8
  %_M_refcount.i.i = getelementptr inbounds i8, ptr %allocator, i64 8
  %_M_refcount3.i.i = getelementptr inbounds i8, ptr %params, i64 104
  %1 = load ptr, ptr %_M_refcount.i.i, align 8
  %2 = load ptr, ptr %_M_refcount3.i.i, align 8
  %cmp.not.i.i.i = icmp eq ptr %1, %2
  br i1 %cmp.not.i.i.i, label %if.end, label %if.then.i.i.i

if.then.i.i.i:                                    ; preds = %if.then
  %cmp3.not.i.i.i = icmp eq ptr %1, null
  br i1 %cmp3.not.i.i.i, label %if.end.i.i.i, label %if.then4.i.i.i

if.then4.i.i.i:                                   ; preds = %if.then.i.i.i
  %_M_use_count.i.i.i.i = getelementptr inbounds i8, ptr %1, i64 8
  %3 = load i8, ptr @__libc_single_threaded, align 1
  %tobool.i.not.i.i.i.i = icmp eq i8 %3, 0
  br i1 %tobool.i.not.i.i.i.i, label %if.else.i.i.i.i.i, label %if.then.i.i.i.i.i

if.then.i.i.i.i.i:                                ; preds = %if.then4.i.i.i
  %4 = load i32, ptr %_M_use_count.i.i.i.i, align 4
  %add.i.i.i.i.i = add nsw i32 %4, 1
  store i32 %add.i.i.i.i.i, ptr %_M_use_count.i.i.i.i, align 4
  br label %if.endthread-pre-split.i.i.i

if.else.i.i.i.i.i:                                ; preds = %if.then4.i.i.i
  %5 = atomicrmw volatile add ptr %_M_use_count.i.i.i.i, i32 1 acq_rel, align 4
  br label %if.endthread-pre-split.i.i.i

if.endthread-pre-split.i.i.i:                     ; preds = %if.else.i.i.i.i.i, %if.then.i.i.i.i.i
  %.pr.i.i.i = load ptr, ptr %_M_refcount3.i.i, align 8
  br label %if.end.i.i.i

if.end.i.i.i:                                     ; preds = %if.endthread-pre-split.i.i.i, %if.then.i.i.i
  %6 = phi ptr [ %.pr.i.i.i, %if.endthread-pre-split.i.i.i ], [ %2, %if.then.i.i.i ]
  %cmp6.not.i.i.i = icmp eq ptr %6, null
  br i1 %cmp6.not.i.i.i, label %if.end9.i.i.i, label %if.then7.i.i.i

if.then7.i.i.i:                                   ; preds = %if.end.i.i.i
  %_M_use_count.i5.i.i.i = getelementptr inbounds i8, ptr %6, i64 8
  %7 = load atomic i64, ptr %_M_use_count.i5.i.i.i acquire, align 8
  %cmp.i.i.i.i = icmp eq i64 %7, 4294967297
  %8 = trunc i64 %7 to i32
  br i1 %cmp.i.i.i.i, label %if.then.i.i.i.i, label %if.end.i.i.i.i

if.then.i.i.i.i:                                  ; preds = %if.then7.i.i.i
  store i32 0, ptr %_M_use_count.i5.i.i.i, align 8
  %_M_weak_count.i.i.i.i = getelementptr inbounds i8, ptr %6, i64 12
  store i32 0, ptr %_M_weak_count.i.i.i.i, align 4
  %vtable.i.i.i.i = load ptr, ptr %6, align 8
  %vfn.i.i.i.i = getelementptr inbounds i8, ptr %vtable.i.i.i.i, i64 16
  %9 = load ptr, ptr %vfn.i.i.i.i, align 8
  call void %9(ptr noundef nonnull align 8 dereferenceable(16) %6) #12
  br label %if.end8.sink.split.i.i.i.i

if.end.i.i.i.i:                                   ; preds = %if.then7.i.i.i
  %10 = load i8, ptr @__libc_single_threaded, align 1
  %tobool.i.i.not.i.i.i.i = icmp eq i8 %10, 0
  br i1 %tobool.i.i.not.i.i.i.i, label %if.else.i.i8.i.i.i, label %if.then.i.i6.i.i.i

if.then.i.i6.i.i.i:                               ; preds = %if.end.i.i.i.i
  %add.i.i7.i.i.i = add nsw i32 %8, -1
  store i32 %add.i.i7.i.i.i, ptr %_M_use_count.i5.i.i.i, align 4
  br label %_ZN9__gnu_cxx27__exchange_and_add_dispatchEPii.exit.i.i.i.i

if.else.i.i8.i.i.i:                               ; preds = %if.end.i.i.i.i
  %11 = atomicrmw volatile add ptr %_M_use_count.i5.i.i.i, i32 -1 acq_rel, align 4
  br label %_ZN9__gnu_cxx27__exchange_and_add_dispatchEPii.exit.i.i.i.i

_ZN9__gnu_cxx27__exchange_and_add_dispatchEPii.exit.i.i.i.i: ; preds = %if.else.i.i8.i.i.i, %if.then.i.i6.i.i.i
  %retval.i.0.i.i.i.i = phi i32 [ %8, %if.then.i.i6.i.i.i ], [ %11, %if.else.i.i8.i.i.i ]
  %cmp6.i.i.i.i = icmp eq i32 %retval.i.0.i.i.i.i, 1
  br i1 %cmp6.i.i.i.i, label %if.then7.i.i.i.i, label %if.end9.i.i.i

if.then7.i.i.i.i:                                 ; preds = %_ZN9__gnu_cxx27__exchange_and_add_dispatchEPii.exit.i.i.i.i
  %vtable.i.i.i.i.i.i = load ptr, ptr %6, align 8
  %vfn.i.i.i.i.i.i = getelementptr inbounds i8, ptr %vtable.i.i.i.i.i.i, i64 16
  %12 = load ptr, ptr %vfn.i.i.i.i.i.i, align 8
  call void %12(ptr noundef nonnull align 8 dereferenceable(16) %6) #12
  %_M_weak_count.i.i.i.i.i.i = getelementptr inbounds i8, ptr %6, i64 12
  %13 = load i8, ptr @__libc_single_threaded, align 1
  %tobool.i.i.not.i.i.i.i.i.i = icmp eq i8 %13, 0
  br i1 %tobool.i.i.not.i.i.i.i.i.i, label %if.else.i.i.i.i.i.i.i, label %if.then.i.i.i.i.i.i.i

if.then.i.i.i.i.i.i.i:                            ; preds = %if.then7.i.i.i.i
  %14 = load i32, ptr %_M_weak_count.i.i.i.i.i.i, align 4
  %add.i.i.i.i.i.i.i = add nsw i32 %14, -1
  store i32 %add.i.i.i.i.i.i.i, ptr %_M_weak_count.i.i.i.i.i.i, align 4
  br label %_ZN9__gnu_cxx27__exchange_and_add_dispatchEPii.exit.i.i.i.i.i.i

if.else.i.i.i.i.i.i.i:                            ; preds = %if.then7.i.i.i.i
  %15 = atomicrmw volatile add ptr %_M_weak_count.i.i.i.i.i.i, i32 -1 acq_rel, align 4
  br label %_ZN9__gnu_cxx27__exchange_and_add_dispatchEPii.exit.i.i.i.i.i.i

_ZN9__gnu_cxx27__exchange_and_add_dispatchEPii.exit.i.i.i.i.i.i: ; preds = %if.else.i.i.i.i.i.i.i, %if.then.i.i.i.i.i.i.i
  %retval.i.0.i.i.i.i.i.i = phi i32 [ %14, %if.then.i.i.i.i.i.i.i ], [ %15, %if.else.i.i.i.i.i.i.i ]
  %cmp.i.i.i.i.i.i = icmp eq i32 %retval.i.0.i.i.i.i.i.i, 1
  br i1 %cmp.i.i.i.i.i.i, label %if.end8.sink.split.i.i.i.i, label %if.end9.i.i.i

if.end8.sink.split.i.i.i.i:                       ; preds = %_ZN9__gnu_cxx27__exchange_and_add_dispatchEPii.exit.i.i.i.i.i.i, %if.then.i.i.i.i
  %vtable2.i.i.i.i.i.i = load ptr, ptr %6, align 8
  %vfn3.i.i.i.i.i.i = getelementptr inbounds i8, ptr %vtable2.i.i.i.i.i.i, i64 24
  %16 = load ptr, ptr %vfn3.i.i.i.i.i.i, align 8
  call void %16(ptr noundef nonnull align 8 dereferenceable(16) %6) #12
  br label %if.end9.i.i.i

if.end9.i.i.i:                                    ; preds = %if.end8.sink.split.i.i.i.i, %_ZN9__gnu_cxx27__exchange_and_add_dispatchEPii.exit.i.i.i.i.i.i, %_ZN9__gnu_cxx27__exchange_and_add_dispatchEPii.exit.i.i.i.i, %if.end.i.i.i
  store ptr %1, ptr %_M_refcount3.i.i, align 8
  br label %if.end

if.end:                                           ; preds = %if.end9.i.i.i, %if.then, %entry
  %call2 = call noundef ptr @_ZN4node12SnapshotData19FromEmbedderWrapperEPKNS_20EmbedderSnapshotDataE(ptr noundef %snapshot_data) #12
  %call3 = call noundef ptr @_ZN4node10NewIsolateEPN2v87Isolate12CreateParamsEP9uv_loop_sPNS_20MultiIsolatePlatformEPKNS_12SnapshotDataERKNS_15IsolateSettingsE(ptr noundef nonnull %params, ptr noundef %event_loop, ptr noundef %platform, ptr noundef %call2, ptr noundef nonnull align 8 dereferenceable(64) %settings)
  call void @_ZN2v87Isolate12CreateParamsD1Ev(ptr noundef nonnull align 8 dereferenceable(152) %params) #12
  ret ptr %call3
}